target datalayout = "e-m:e-p270:32:32-p271:32:32-p272:64:64-i64:64-i128:128-f80:128-n8:16:32:64-S128"
target triple = "x86_64-pc-linux-gnu"

%"struct.ue2::(anonymous namespace)::check_report" = type { ptr }
%"struct.ue2::(anonymous namespace)::equiv_check_report" = type { %"struct.ue2::(anonymous namespace)::check_report", i32, i32 }

@_ZTVN3ue212_GLOBAL__N_112check_reportE = internal unnamed_addr constant { [5 x ptr] } { [5 x ptr] [ptr null, ptr @_ZTIN3ue212_GLOBAL__N_112check_reportE, ptr @_ZN3ue212_GLOBAL__N_112check_reportD2Ev, ptr @_ZN3ue212_GLOBAL__N_112check_reportD0Ev, ptr @__cxa_pure_virtual] }, align 8

; Function Attrs: inlinehint mustprogress nounwind uwtable
define internal void @_ZN3ue212_GLOBAL__N_112check_reportC2Ev(ptr noundef nonnull align 8 dereferenceable(8) %0) unnamed_addr #7 align 2 {
  %2 = alloca ptr, align 8
  store ptr %0, ptr %2, align 8
  %3 = load ptr, ptr %2, align 8
  store ptr getelementptr inbounds inrange(-16, 24) ({ [5 x ptr] }, ptr @_ZTVN3ue212_GLOBAL__N_112check_reportE, i32 0, i32 0, i32 2), ptr %3, align 8
  ret void
}

; Function Attrs: mustprogress nounwind uwtable
define internal void @_ZN3ue212_GLOBAL__N_112check_reportD2Ev(ptr noundef nonnull align 8 dereferenceable(8) %0) unnamed_addr #1 align 2 {
  %2 = alloca ptr, align 8
  store ptr %0, ptr %2, align 8
  ret void
}

; Function Attrs: mustprogress nounwind uwtable
define internal void @_ZN3ue212_GLOBAL__N_118equiv_check_reportC2Ejj(ptr noundef nonnull align 8 dereferenceable(16) %0, i32 noundef %1, i32 noundef %2) unnamed_addr #1 align 2 {
  %4 = alloca ptr, align 8
  %5 = alloca i32, align 4
  %6 = alloca i32, align 4
  store ptr %0, ptr %4, align 8
  store i32 %1, ptr %5, align 4
  store i32 %2, ptr %6, align 4
  %7 = load ptr, ptr %4, align 8
  call void @_ZN3ue212_GLOBAL__N_112check_reportC2Ev(ptr noundef nonnull align 8 dereferenceable(8) %7) #19
  store ptr getelementptr inbounds inrange(-16, 24) ({ [5 x ptr] }, ptr @_ZTVN3ue212_GLOBAL__N_118equiv_check_reportE, i32 0, i32 0, i32 2), ptr %7, align 8
  %8 = getelementptr inbounds nuw %"struct.ue2::(anonymous namespace)::equiv_check_report", ptr %7, i32 0, i32 1
  %9 = load i32, ptr %5, align 4
  store i32 %9, ptr %8, align 8
  %10 = getelementptr inbounds nuw %"struct.ue2::(anonymous namespace)::equiv_check_report", ptr %7, i32 0, i32 2
  %11 = load i32, ptr %6, align 4
  store i32 %11, ptr %10, align 4
  ret void
}

; Function Attrs: mustprogress uwtable
define hidden noundef zeroext i1 @_ZN3ue28is_equalERKNS_8NGHolderEjS2_j(ptr noundef nonnull align 8 dereferenceable(136) %0, i32 noundef %1, ptr noundef nonnull align 8 dereferenceable(136) %2, i32 noundef %3) #3 personality ptr @__gxx_personality_v0 {
  %5 = alloca i1, align 1
  %6 = alloca ptr, align 8
  %7 = alloca i32, align 4
  %8 = alloca ptr, align 8
  %9 = alloca i32, align 4
  %10 = alloca %"struct.ue2::(anonymous namespace)::equiv_check_report", align 8
  %11 = alloca ptr, align 8
  %12 = alloca i32, align 4
  store ptr %0, ptr %6, align 8
  store i32 %1, ptr %7, align 4
  store ptr %2, ptr %8, align 8
  store i32 %3, ptr %9, align 4
  br label %13

13:                                               ; preds = %4
  br label %14

14:                                               ; preds = %13
  %15 = load ptr, ptr %6, align 8
  %16 = load ptr, ptr %8, align 8
  %17 = icmp eq ptr %15, %16
  br i1 %17, label %18, label %23

18:                                               ; preds = %14
  %19 = load i32, ptr %7, align 4
  %20 = load i32, ptr %9, align 4
  %21 = icmp eq i32 %19, %20
  br i1 %21, label %22, label %23

22:                                               ; preds = %18
  store i1 true, ptr %5, align 1
  br label %34

23:                                               ; preds = %18, %14
  %24 = load ptr, ptr %6, align 8
  %25 = load ptr, ptr %8, align 8
  call void @llvm.lifetime.start.p0(i64 16, ptr %10) #19
  %26 = load i32, ptr %7, align 4
  %27 = load i32, ptr %9, align 4
  call void @_ZN3ue212_GLOBAL__N_118equiv_check_reportC2Ejj(ptr noundef nonnull align 8 dereferenceable(16) %10, i32 noundef %26, i32 noundef %27)
  %28 = invoke noundef zeroext i1 @_ZN3ue2L10is_equal_iERKNS_8NGHolderES2_RKNS_12_GLOBAL__N_112check_reportE(ptr noundef nonnull align 8 dereferenceable(136) %24, ptr noundef nonnull align 8 dereferenceable(136) %25, ptr noundef nonnull align 8 dereferenceable(8) %10)
          to label %29 unwind label %30

29:                                               ; preds = %23
  store i1 %28, ptr %5, align 1
  call void @_ZN3ue212_GLOBAL__N_112check_reportD2Ev(ptr noundef nonnull align 8 dereferenceable(16) %10) #19
  call void @llvm.lifetime.end.p0(i64 16, ptr %10) #19
  br label %34

30:                                               ; preds = %23
  %31 = landingpad { ptr, i32 }
          cleanup
  %32 = extractvalue { ptr, i32 } %31, 0
  store ptr %32, ptr %11, align 8
  %33 = extractvalue { ptr, i32 } %31, 1
  store i32 %33, ptr %12, align 4
  call void @_ZN3ue212_GLOBAL__N_112check_reportD2Ev(ptr noundef nonnull align 8 dereferenceable(16) %10) #19
  call void @llvm.lifetime.end.p0(i64 16, ptr %10) #19
  br label %36

34:                                               ; preds = %29, %22
  %35 = load i1, ptr %5, align 1
  ret i1 %35

36:                                               ; preds = %30
  %37 = load ptr, ptr %11, align 8
  %38 = load i32, ptr %12, align 4
  %39 = insertvalue { ptr, i32 } poison, ptr %37, 0
  %40 = insertvalue { ptr, i32 } %39, i32 %38, 1
  resume { ptr, i32 } %40
}