; Function Attrs: mustprogress uwtable
define hidden noundef zeroext i1 @_ZN3ue28is_equalERKNS_8NGHolderEjS2_j(ptr noundef nonnull align 8 dereferenceable(136) %0, i32 noundef %1, ptr noundef nonnull align 8 dereferenceable(136) %2, i32 noundef %3) local_unnamed_addr #3 personality ptr @__gxx_personality_v0 {
  %5 = alloca %"struct.ue2::(anonymous namespace)::equiv_check_report", align 8
  %6 = icmp eq ptr %0, %2
  %7 = icmp eq i32 %1, %3
  %or.cond = and i1 %6, %7
  br i1 %or.cond, label %12, label %8

8:                                                ; preds = %4
  call void @llvm.lifetime.start.p0(i64 16, ptr nonnull %5) #25
  store ptr getelementptr inbounds nuw inrange(-16, 24) (i8, ptr @_ZTVN3ue212_GLOBAL__N_118equiv_check_reportE, i64 16), ptr %5, align 8
  %9 = getelementptr inbounds nuw i8, ptr %5, i64 8
  store i32 %1, ptr %9, align 8
  %10 = getelementptr inbounds nuw i8, ptr %5, i64 12
  store i32 %3, ptr %10, align 4
  %11 = call fastcc noundef zeroext i1 @_ZN3ue2L10is_equal_iERKNS_8NGHolderES2_RKNS_12_GLOBAL__N_112check_reportE(ptr noundef nonnull align 8 dereferenceable(136) %0, ptr noundef nonnull align 8 dereferenceable(136) %2, ptr noundef nonnull align 8 dereferenceable(8) %5)
  call void @llvm.lifetime.end.p0(i64 16, ptr nonnull %5) #25
  br label %12

12:                                               ; preds = %4, %8
  %.0 = phi i1 [ %11, %8 ], [ true, %4 ]
  ret i1 %.0
}